target datalayout = "e-m:e-p270:32:32-p271:32:32-p272:64:64-i64:64-i128:128-f80:128-n8:16:32:64-S128"
target triple = "x86_64-pc-linux-gnu"

%struct.quic_sstream_st = type { %struct.ring_buf, %struct.ossl_list_st_uint_set, %struct.ossl_list_st_uint_set, i8 }
%struct.ring_buf = type { ptr, i64, i64, i64 }
%struct.ossl_list_st_uint_set = type { ptr, ptr, i64 }
%struct.uint_set_item_st = type { %struct.anon, %struct.uint_range_st }
%struct.anon = type { ptr, ptr }
%struct.uint_range_st = type { i64, i64 }

; Function Attrs: inlinehint nounwind uwtable
define internal void @ring_buf_cpop_range(ptr noundef %0, i64 noundef %1, i64 noundef %2, i32 noundef %3) #3 {
  %5 = alloca ptr, align 8
  %6 = alloca i64, align 8
  %7 = alloca i64, align 8
  %8 = alloca i32, align 4
  %9 = alloca i64, align 8
  %10 = alloca i64, align 8
  %11 = alloca i64, align 8
  store ptr %0, ptr %5, align 8, !tbaa !10
  store i64 %1, ptr %6, align 8, !tbaa !3
  store i64 %2, ptr %7, align 8, !tbaa !3
  store i32 %3, ptr %8, align 4, !tbaa !17
  %12 = load i64, ptr %6, align 8, !tbaa !3
  %13 = load ptr, ptr %5, align 8, !tbaa !10
  %14 = getelementptr inbounds nuw %struct.ring_buf, ptr %13, i32 0, i32 3
  %15 = load i64, ptr %14, align 8, !tbaa !15
  %16 = icmp ugt i64 %12, %15
  br i1 %16, label %20, label %17

17:                                               ; preds = %4
  %18 = load i64, ptr %7, align 8, !tbaa !3
  %19 = icmp uge i64 %18, 4611686018427387904
  br i1 %19, label %20, label %21

20:                                               ; preds = %17, %4
  br label %114

21:                                               ; preds = %17
  %22 = load i32, ptr %8, align 4, !tbaa !17
  %23 = icmp ne i32 %22, 0
  br i1 %23, label %24, label %96

24:                                               ; preds = %21
  %25 = load ptr, ptr %5, align 8, !tbaa !10
  %26 = getelementptr inbounds nuw %struct.ring_buf, ptr %25, i32 0, i32 1
  %27 = load i64, ptr %26, align 8, !tbaa !14
  %28 = icmp ugt i64 %27, 0
  br i1 %28, label %29, label %96

29:                                               ; preds = %24
  %30 = load i64, ptr %7, align 8, !tbaa !3
  %31 = load ptr, ptr %5, align 8, !tbaa !10
  %32 = getelementptr inbounds nuw %struct.ring_buf, ptr %31, i32 0, i32 3
  %33 = load i64, ptr %32, align 8, !tbaa !15
  %34 = icmp ugt i64 %30, %33
  br i1 %34, label %35, label %96

35:                                               ; preds = %29
  call void @llvm.lifetime.start.p0(i64 8, ptr %9) #6
  %36 = load ptr, ptr %5, align 8, !tbaa !10
  %37 = getelementptr inbounds nuw %struct.ring_buf, ptr %36, i32 0, i32 3
  %38 = load i64, ptr %37, align 8, !tbaa !15
  %39 = load ptr, ptr %5, align 8, !tbaa !10
  %40 = getelementptr inbounds nuw %struct.ring_buf, ptr %39, i32 0, i32 1
  %41 = load i64, ptr %40, align 8, !tbaa !14
  %42 = urem i64 %38, %41
  store i64 %42, ptr %9, align 8, !tbaa !3
  call void @llvm.lifetime.start.p0(i64 8, ptr %10) #6
  %43 = load i64, ptr %7, align 8, !tbaa !3
  %44 = add i64 %43, 1
  store i64 %44, ptr %10, align 8, !tbaa !3
  call void @llvm.lifetime.start.p0(i64 8, ptr %11) #6
  %45 = load i64, ptr %10, align 8, !tbaa !3
  %46 = load ptr, ptr %5, align 8, !tbaa !10
  %47 = getelementptr inbounds nuw %struct.ring_buf, ptr %46, i32 0, i32 2
  %48 = load i64, ptr %47, align 8, !tbaa !16
  %49 = icmp ugt i64 %45, %48
  br i1 %49, label %50, label %54

50:                                               ; preds = %35
  %51 = load ptr, ptr %5, align 8, !tbaa !10
  %52 = getelementptr inbounds nuw %struct.ring_buf, ptr %51, i32 0, i32 2
  %53 = load i64, ptr %52, align 8, !tbaa !16
  store i64 %53, ptr %10, align 8, !tbaa !3
  br label %54

54:                                               ; preds = %50, %35
  %55 = load i64, ptr %10, align 8, !tbaa !3
  %56 = load ptr, ptr %5, align 8, !tbaa !10
  %57 = getelementptr inbounds nuw %struct.ring_buf, ptr %56, i32 0, i32 3
  %58 = load i64, ptr %57, align 8, !tbaa !15
  %59 = sub i64 %55, %58
  store i64 %59, ptr %11, align 8, !tbaa !3
  %60 = load i64, ptr %11, align 8, !tbaa !3
  %61 = load ptr, ptr %5, align 8, !tbaa !10
  %62 = getelementptr inbounds nuw %struct.ring_buf, ptr %61, i32 0, i32 1
  %63 = load i64, ptr %62, align 8, !tbaa !14
  %64 = load i64, ptr %9, align 8, !tbaa !3
  %65 = sub i64 %63, %64
  %66 = icmp ugt i64 %60, %65
  br i1 %66, label %67, label %85

67:                                               ; preds = %54
  %68 = load ptr, ptr %5, align 8, !tbaa !10
  %69 = getelementptr inbounds nuw %struct.ring_buf, ptr %68, i32 0, i32 0
  %70 = load ptr, ptr %69, align 8, !tbaa !12
  %71 = load i64, ptr %9, align 8, !tbaa !3
  %72 = getelementptr inbounds nuw i8, ptr %70, i64 %71
  %73 = load ptr, ptr %5, align 8, !tbaa !10
  %74 = getelementptr inbounds nuw %struct.ring_buf, ptr %73, i32 0, i32 1
  %75 = load i64, ptr %74, align 8, !tbaa !14
  %76 = load i64, ptr %9, align 8, !tbaa !3
  %77 = sub i64 %75, %76
  call void @OPENSSL_cleanse(ptr noundef %72, i64 noundef %77)
  %78 = load ptr, ptr %5, align 8, !tbaa !10
  %79 = getelementptr inbounds nuw %struct.ring_buf, ptr %78, i32 0, i32 1
  %80 = load i64, ptr %79, align 8, !tbaa !14
  %81 = load i64, ptr %9, align 8, !tbaa !3
  %82 = sub i64 %80, %81
  %83 = load i64, ptr %11, align 8, !tbaa !3
  %84 = sub i64 %83, %82
  store i64 %84, ptr %11, align 8, !tbaa !3
  store i64 0, ptr %9, align 8, !tbaa !3
  br label %85

85:                                               ; preds = %67, %54
  %86 = load i64, ptr %11, align 8, !tbaa !3
  %87 = icmp ugt i64 %86, 0
  br i1 %87, label %88, label %95

88:                                               ; preds = %85
  %89 = load ptr, ptr %5, align 8, !tbaa !10
  %90 = getelementptr inbounds nuw %struct.ring_buf, ptr %89, i32 0, i32 0
  %91 = load ptr, ptr %90, align 8, !tbaa !12
  %92 = load i64, ptr %9, align 8, !tbaa !3
  %93 = getelementptr inbounds nuw i8, ptr %91, i64 %92
  %94 = load i64, ptr %11, align 8, !tbaa !3
  call void @OPENSSL_cleanse(ptr noundef %93, i64 noundef %94)
  br label %95

95:                                               ; preds = %88, %85
  call void @llvm.lifetime.end.p0(i64 8, ptr %11) #6
  call void @llvm.lifetime.end.p0(i64 8, ptr %10) #6
  call void @llvm.lifetime.end.p0(i64 8, ptr %9) #6
  br label %96

96:                                               ; preds = %95, %29, %24, %21
  %97 = load i64, ptr %7, align 8, !tbaa !3
  %98 = add i64 %97, 1
  %99 = load ptr, ptr %5, align 8, !tbaa !10
  %100 = getelementptr inbounds nuw %struct.ring_buf, ptr %99, i32 0, i32 3
  store i64 %98, ptr %100, align 8, !tbaa !15
  %101 = load ptr, ptr %5, align 8, !tbaa !10
  %102 = getelementptr inbounds nuw %struct.ring_buf, ptr %101, i32 0, i32 2
  %103 = load i64, ptr %102, align 8, !tbaa !16
  %104 = load ptr, ptr %5, align 8, !tbaa !10
  %105 = getelementptr inbounds nuw %struct.ring_buf, ptr %104, i32 0, i32 3
  %106 = load i64, ptr %105, align 8, !tbaa !15
  %107 = icmp ult i64 %103, %106
  br i1 %107, label %108, label %114

108:                                              ; preds = %96
  %109 = load ptr, ptr %5, align 8, !tbaa !10
  %110 = getelementptr inbounds nuw %struct.ring_buf, ptr %109, i32 0, i32 3
  %111 = load i64, ptr %110, align 8, !tbaa !15
  %112 = load ptr, ptr %5, align 8, !tbaa !10
  %113 = getelementptr inbounds nuw %struct.ring_buf, ptr %112, i32 0, i32 2
  store i64 %111, ptr %113, align 8, !tbaa !16
  br label %114

114:                                              ; preds = %20, %108, %96
  ret void
}

; Function Attrs: inlinehint nounwind uwtable
define internal ptr @ossl_list_uint_set_head(ptr noundef %0) #3 {
  %2 = alloca ptr, align 8
  store ptr %0, ptr %2, align 8, !tbaa !45
  %3 = load ptr, ptr %2, align 8, !tbaa !45
  %4 = getelementptr inbounds nuw %struct.ossl_list_st_uint_set, ptr %3, i32 0, i32 0
  %5 = load ptr, ptr %4, align 8, !tbaa !47
  ret ptr %5
}

; Function Attrs: nounwind uwtable
define internal void @qss_cull(ptr noundef %0) #0 {
  %2 = alloca ptr, align 8
  %3 = alloca ptr, align 8
  store ptr %0, ptr %2, align 8, !tbaa !7
  call void @llvm.lifetime.start.p0(i64 8, ptr %3) #6
  %4 = load ptr, ptr %2, align 8, !tbaa !7
  %5 = getelementptr inbounds nuw %struct.quic_sstream_st, ptr %4, i32 0, i32 2
  %6 = call ptr @ossl_list_uint_set_head(ptr noundef %5)
  store ptr %6, ptr %3, align 8, !tbaa !27
  %7 = load ptr, ptr %3, align 8, !tbaa !27
  %8 = icmp ne ptr %7, null
  br i1 %8, label %9, label %26

9:                                                ; preds = %1
  %10 = load ptr, ptr %2, align 8, !tbaa !7
  %11 = getelementptr inbounds nuw %struct.quic_sstream_st, ptr %10, i32 0, i32 0
  %12 = load ptr, ptr %3, align 8, !tbaa !27
  %13 = getelementptr inbounds nuw %struct.uint_set_item_st, ptr %12, i32 0, i32 1
  %14 = getelementptr inbounds nuw %struct.uint_range_st, ptr %13, i32 0, i32 0
  %15 = load i64, ptr %14, align 8, !tbaa !41
  %16 = load ptr, ptr %3, align 8, !tbaa !27
  %17 = getelementptr inbounds nuw %struct.uint_set_item_st, ptr %16, i32 0, i32 1
  %18 = getelementptr inbounds nuw %struct.uint_range_st, ptr %17, i32 0, i32 1
  %19 = load i64, ptr %18, align 8, !tbaa !37
  %20 = load ptr, ptr %2, align 8, !tbaa !7
  %21 = getelementptr inbounds nuw %struct.quic_sstream_st, ptr %20, i32 0, i32 3
  %22 = load i8, ptr %21, align 8
  %23 = lshr i8 %22, 3
  %24 = and i8 %23, 1
  %25 = zext i8 %24 to i32
  call void @ring_buf_cpop_range(ptr noundef %11, i64 noundef %15, i64 noundef %19, i32 noundef %25)
  br label %26

26:                                               ; preds = %9, %1
  call void @llvm.lifetime.end.p0(i64 8, ptr %3) #6
  ret void
}

; Function Attrs: nounwind uwtable
define i32 @ossl_quic_sstream_mark_acked(ptr noundef %0, i64 noundef %1, i64 noundef %2) #0 {
  %4 = alloca i32, align 4
  %5 = alloca ptr, align 8
  %6 = alloca i64, align 8
  %7 = alloca i64, align 8
  %8 = alloca %struct.uint_range_st, align 8
  %9 = alloca i32, align 4
  store ptr %0, ptr %5, align 8, !tbaa !7
  store i64 %1, ptr %6, align 8, !tbaa !3
  store i64 %2, ptr %7, align 8, !tbaa !3
  call void @llvm.lifetime.start.p0(i64 16, ptr %8) #6
  %10 = load i64, ptr %6, align 8, !tbaa !3
  %11 = getelementptr inbounds nuw %struct.uint_range_st, ptr %8, i32 0, i32 0
  store i64 %10, ptr %11, align 8, !tbaa !51
  %12 = load i64, ptr %7, align 8, !tbaa !3
  %13 = getelementptr inbounds nuw %struct.uint_range_st, ptr %8, i32 0, i32 1
  store i64 %12, ptr %13, align 8, !tbaa !52
  %14 = load ptr, ptr %5, align 8, !tbaa !7
  %15 = getelementptr inbounds nuw %struct.quic_sstream_st, ptr %14, i32 0, i32 2
  %16 = call i32 @ossl_uint_set_insert(ptr noundef %15, ptr noundef %8)
  %17 = icmp ne i32 %16, 0
  br i1 %17, label %19, label %18

18:                                               ; preds = %3
  store i32 0, ptr %4, align 4
  store i32 1, ptr %9, align 4
  br label %21

19:                                               ; preds = %3
  %20 = load ptr, ptr %5, align 8, !tbaa !7
  call void @qss_cull(ptr noundef %20)
  store i32 1, ptr %4, align 4
  store i32 1, ptr %9, align 4
  br label %21

21:                                               ; preds = %19, %18
  call void @llvm.lifetime.end.p0(i64 16, ptr %8) #6
  %22 = load i32, ptr %4, align 4
  ret i32 %22
}