; Function Attrs: nounwind uwtable
define range(i32 0, 2) i32 @ossl_quic_sstream_mark_acked(ptr noundef %0, i64 noundef %1, i64 noundef %2) local_unnamed_addr #0 {
  %4 = alloca %struct.uint_range_st, align 8
  call void @llvm.lifetime.start.p0(i64 16, ptr nonnull %4) #12
  store i64 %1, ptr %4, align 8, !tbaa !33
  %5 = getelementptr inbounds nuw i8, ptr %4, i64 8
  store i64 %2, ptr %5, align 8, !tbaa !34
  %6 = getelementptr inbounds nuw i8, ptr %0, i64 56
  %7 = call i32 @ossl_uint_set_insert(ptr noundef nonnull %6, ptr noundef nonnull %4) #12
  %.not = icmp eq i32 %7, 0
  br i1 %.not, label %qss_cull.exit, label %8

8:                                                ; preds = %3
  %.val.i = load ptr, ptr %6, align 8, !tbaa !35
  %.not.i = icmp eq ptr %.val.i, null
  br i1 %.not.i, label %qss_cull.exit, label %9

9:                                                ; preds = %8
  %10 = getelementptr inbounds nuw i8, ptr %.val.i, i64 16
  %11 = load i64, ptr %10, align 8, !tbaa !29
  %12 = getelementptr inbounds nuw i8, ptr %.val.i, i64 24
  %13 = load i64, ptr %12, align 8, !tbaa !25
  %14 = getelementptr inbounds nuw i8, ptr %0, i64 24
  %15 = load i64, ptr %14, align 8, !tbaa !11
  %16 = icmp ugt i64 %11, %15
  %17 = icmp ugt i64 %13, 4611686018427387903
  %or.cond.i.i = or i1 %17, %16
  br i1 %or.cond.i.i, label %qss_cull.exit, label %18

18:                                               ; preds = %9
  %19 = getelementptr inbounds nuw i8, ptr %0, i64 80
  %20 = load i8, ptr %19, align 8
  %21 = and i8 %20, 8
  %.not.i.i = icmp eq i8 %21, 0
  br i1 %.not.i.i, label %43, label %22

22:                                               ; preds = %18
  %23 = getelementptr inbounds nuw i8, ptr %0, i64 8
  %24 = load i64, ptr %23, align 8, !tbaa !9
  %.not45.i.i = icmp ne i64 %24, 0
  %25 = icmp ugt i64 %13, %15
  %or.cond49.i.i = and i1 %25, %.not45.i.i
  br i1 %or.cond49.i.i, label %26, label %43

26:                                               ; preds = %22
  %27 = urem i64 %15, %24
  %28 = add nuw nsw i64 %13, 1
  %29 = getelementptr inbounds nuw i8, ptr %0, i64 16
  %30 = load i64, ptr %29, align 8, !tbaa !10
  %.not46.i.i = icmp ult i64 %13, %30
  %spec.select.i.i = select i1 %.not46.i.i, i64 %28, i64 %30
  %31 = sub i64 %spec.select.i.i, %15
  %32 = sub i64 %24, %27
  %33 = icmp ugt i64 %31, %32
  br i1 %33, label %34, label %39

34:                                               ; preds = %26
  %35 = load ptr, ptr %0, align 8, !tbaa !3
  %36 = getelementptr inbounds nuw i8, ptr %35, i64 %27
  call void @OPENSSL_cleanse(ptr noundef %36, i64 noundef %32) #12
  %37 = load i64, ptr %23, align 8, !tbaa !9
  %.neg.i.i = add i64 %31, %27
  %38 = sub i64 %.neg.i.i, %37
  br label %39

39:                                               ; preds = %34, %26
  %.036.i.i = phi i64 [ 0, %34 ], [ %27, %26 ]
  %.0.i.i = phi i64 [ %38, %34 ], [ %31, %26 ]
  %.not47.i.i = icmp eq i64 %.0.i.i, 0
  br i1 %.not47.i.i, label %43, label %40

40:                                               ; preds = %39
  %41 = load ptr, ptr %0, align 8, !tbaa !3
  %42 = getelementptr inbounds nuw i8, ptr %41, i64 %.036.i.i
  call void @OPENSSL_cleanse(ptr noundef %42, i64 noundef %.0.i.i) #12
  br label %43

43:                                               ; preds = %40, %39, %22, %18
  %44 = add nuw nsw i64 %13, 1
  store i64 %44, ptr %14, align 8, !tbaa !11
  %45 = getelementptr inbounds nuw i8, ptr %0, i64 16
  %46 = load i64, ptr %45, align 8, !tbaa !10
  %.not48.i.i = icmp ugt i64 %46, %13
  br i1 %.not48.i.i, label %qss_cull.exit, label %47

47:                                               ; preds = %43
  store i64 %44, ptr %45, align 8, !tbaa !10
  br label %qss_cull.exit

qss_cull.exit:                                    ; preds = %47, %43, %9, %8, %3
  %.0 = phi i32 [ 0, %3 ], [ 1, %8 ], [ 1, %9 ], [ 1, %43 ], [ 1, %47 ]
  call void @llvm.lifetime.end.p0(i64 16, ptr nonnull %4) #12
  ret i32 %.0
}